; Function Attrs: mustprogress nounwind uwtable
define void @gguf_free(ptr noundef %0) local_unnamed_addr #3 personality ptr @__gxx_personality_v0 {
  %2 = icmp eq ptr %0, null
  br i1 %2, label %26, label %3

3:                                                ; preds = %1
  %4 = getelementptr inbounds nuw i8, ptr %0, i64 32
  %5 = load ptr, ptr %4, align 8, !tbaa !46
  %.not.i.i.i.i = icmp eq ptr %5, null
  br i1 %.not.i.i.i.i, label %_ZNSt6vectorI16gguf_tensor_infoSaIS0_EED2Ev.exit.i, label %6

6:                                                ; preds = %3
  %7 = getelementptr inbounds nuw i8, ptr %0, i64 48
  %8 = load ptr, ptr %7, align 8, !tbaa !47
  %9 = ptrtoint ptr %8 to i64
  %10 = ptrtoint ptr %5 to i64
  %11 = sub i64 %9, %10
  tail call void @_ZdlPvm(ptr noundef nonnull %5, i64 noundef %11) #32
  br label %_ZNSt6vectorI16gguf_tensor_infoSaIS0_EED2Ev.exit.i

_ZNSt6vectorI16gguf_tensor_infoSaIS0_EED2Ev.exit.i: ; preds = %6, %3
  %12 = getelementptr inbounds nuw i8, ptr %0, i64 8
  %13 = load ptr, ptr %12, align 8, !tbaa !48
  %14 = getelementptr inbounds nuw i8, ptr %0, i64 16
  %15 = load ptr, ptr %14, align 8, !tbaa !49
  invoke void @_ZNSt12_Destroy_auxILb0EE9__destroyIP7gguf_kvEEvT_S4_(ptr noundef %13, ptr noundef %15)
          to label %_ZSt8_DestroyIP7gguf_kvS0_EvT_S2_RSaIT0_E.exit.i.i unwind label %23

_ZSt8_DestroyIP7gguf_kvS0_EvT_S2_RSaIT0_E.exit.i.i: ; preds = %_ZNSt6vectorI16gguf_tensor_infoSaIS0_EED2Ev.exit.i
  %16 = load ptr, ptr %12, align 8, !tbaa !48
  %.not.i.i.i1.i = icmp eq ptr %16, null
  br i1 %.not.i.i.i1.i, label %_ZN12gguf_contextD2Ev.exit, label %17

17:                                               ; preds = %_ZSt8_DestroyIP7gguf_kvS0_EvT_S2_RSaIT0_E.exit.i.i
  %18 = getelementptr inbounds nuw i8, ptr %0, i64 24
  %19 = load ptr, ptr %18, align 8, !tbaa !50
  %20 = ptrtoint ptr %19 to i64
  %21 = ptrtoint ptr %16 to i64
  %22 = sub i64 %20, %21
  tail call void @_ZdlPvm(ptr noundef nonnull %16, i64 noundef %22) #32
  br label %_ZN12gguf_contextD2Ev.exit

23:                                               ; preds = %_ZNSt6vectorI16gguf_tensor_infoSaIS0_EED2Ev.exit.i
  %24 = landingpad { ptr, i32 }
          catch ptr null
  %25 = extractvalue { ptr, i32 } %24, 0
  tail call void @__clang_call_terminate(ptr %25) #30
  unreachable

_ZN12gguf_contextD2Ev.exit:                       ; preds = %_ZSt8_DestroyIP7gguf_kvS0_EvT_S2_RSaIT0_E.exit.i.i, %17
  tail call void @_ZdlPvm(ptr noundef nonnull %0, i64 noundef 88) #32
  br label %26

26:                                               ; preds = %1, %_ZN12gguf_contextD2Ev.exit
  ret void
}